target datalayout = "e-m:e-p270:32:32-p271:32:32-p272:64:64-i64:64-i128:128-f80:128-n8:16:32:64-S128"
target triple = "x86_64-pc-linux-gnu"

%struct.Type = type { i32, i32, i32, i8, i8, ptr, ptr, ptr, ptr, i32, ptr, ptr, ptr, i8, i8, ptr, ptr, i8, ptr }
%struct.Member = type { ptr, ptr, ptr, ptr, i32, i32, i32, i8, i32, i32 }

; Function Attrs: nounwind uwtable
define internal zeroext i1 @has_flonum(ptr noundef %0, i32 noundef %1, i32 noundef %2, i32 noundef %3) #0 {
  %5 = alloca i1, align 1
  %6 = alloca ptr, align 8
  %7 = alloca i32, align 4
  %8 = alloca i32, align 4
  %9 = alloca i32, align 4
  %10 = alloca ptr, align 8
  %11 = alloca i32, align 4
  %12 = alloca i32, align 4
  store ptr %0, ptr %6, align 8, !tbaa !37
  store i32 %1, ptr %7, align 4, !tbaa !7
  store i32 %2, ptr %8, align 4, !tbaa !7
  store i32 %3, ptr %9, align 4, !tbaa !7
  %13 = load ptr, ptr %6, align 8, !tbaa !37
  %14 = getelementptr inbounds nuw %struct.Type, ptr %13, i32 0, i32 0
  %15 = load i32, ptr %14, align 8, !tbaa !38
  %16 = icmp eq i32 %15, 14
  br i1 %16, label %22, label %17

17:                                               ; preds = %4
  %18 = load ptr, ptr %6, align 8, !tbaa !37
  %19 = getelementptr inbounds nuw %struct.Type, ptr %18, i32 0, i32 0
  %20 = load i32, ptr %19, align 8, !tbaa !38
  %21 = icmp eq i32 %20, 15
  br i1 %21, label %22, label %51

22:                                               ; preds = %17, %4
  call void @llvm.lifetime.start.p0(i64 8, ptr %10) #8
  %23 = load ptr, ptr %6, align 8, !tbaa !37
  %24 = getelementptr inbounds nuw %struct.Type, ptr %23, i32 0, i32 12
  %25 = load ptr, ptr %24, align 8, !tbaa !75
  store ptr %25, ptr %10, align 8, !tbaa !76
  br label %26

26:                                               ; preds = %44, %22
  %27 = load ptr, ptr %10, align 8, !tbaa !76
  %28 = icmp ne ptr %27, null
  br i1 %28, label %30, label %29

29:                                               ; preds = %26
  store i32 2, ptr %11, align 4
  br label %48

30:                                               ; preds = %26
  %31 = load ptr, ptr %10, align 8, !tbaa !76
  %32 = getelementptr inbounds nuw %struct.Member, ptr %31, i32 0, i32 1
  %33 = load ptr, ptr %32, align 8, !tbaa !77
  %34 = load i32, ptr %7, align 4, !tbaa !7
  %35 = load i32, ptr %8, align 4, !tbaa !7
  %36 = load i32, ptr %9, align 4, !tbaa !7
  %37 = load ptr, ptr %10, align 8, !tbaa !76
  %38 = getelementptr inbounds nuw %struct.Member, ptr %37, i32 0, i32 6
  %39 = load i32, ptr %38, align 8, !tbaa !79
  %40 = add nsw i32 %36, %39
  %41 = call zeroext i1 @has_flonum(ptr noundef %33, i32 noundef %34, i32 noundef %35, i32 noundef %40)
  br i1 %41, label %43, label %42

42:                                               ; preds = %30
  store i1 false, ptr %5, align 1
  store i32 1, ptr %11, align 4
  br label %48

43:                                               ; preds = %30
  br label %44

44:                                               ; preds = %43
  %45 = load ptr, ptr %10, align 8, !tbaa !76
  %46 = getelementptr inbounds nuw %struct.Member, ptr %45, i32 0, i32 0
  %47 = load ptr, ptr %46, align 8, !tbaa !80
  store ptr %47, ptr %10, align 8, !tbaa !76
  br label %26, !llvm.loop !81

48:                                               ; preds = %42, %29
  call void @llvm.lifetime.end.p0(i64 8, ptr %10) #8
  %49 = load i32, ptr %11, align 4
  switch i32 %49, label %110 [
    i32 2, label %50
    i32 1, label %108
  ]

50:                                               ; preds = %48
  store i1 true, ptr %5, align 1
  br label %108

51:                                               ; preds = %17
  %52 = load ptr, ptr %6, align 8, !tbaa !37
  %53 = getelementptr inbounds nuw %struct.Type, ptr %52, i32 0, i32 0
  %54 = load i32, ptr %53, align 8, !tbaa !38
  %55 = icmp eq i32 %54, 12
  br i1 %55, label %56, label %88

56:                                               ; preds = %51
  call void @llvm.lifetime.start.p0(i64 4, ptr %12) #8
  store i32 0, ptr %12, align 4, !tbaa !7
  br label %57

57:                                               ; preds = %82, %56
  %58 = load i32, ptr %12, align 4, !tbaa !7
  %59 = load ptr, ptr %6, align 8, !tbaa !37
  %60 = getelementptr inbounds nuw %struct.Type, ptr %59, i32 0, i32 9
  %61 = load i32, ptr %60, align 8, !tbaa !82
  %62 = icmp slt i32 %58, %61
  br i1 %62, label %64, label %63

63:                                               ; preds = %57
  store i32 5, ptr %11, align 4
  br label %85

64:                                               ; preds = %57
  %65 = load ptr, ptr %6, align 8, !tbaa !37
  %66 = getelementptr inbounds nuw %struct.Type, ptr %65, i32 0, i32 6
  %67 = load ptr, ptr %66, align 8, !tbaa !83
  %68 = load i32, ptr %7, align 4, !tbaa !7
  %69 = load i32, ptr %8, align 4, !tbaa !7
  %70 = load i32, ptr %9, align 4, !tbaa !7
  %71 = load ptr, ptr %6, align 8, !tbaa !37
  %72 = getelementptr inbounds nuw %struct.Type, ptr %71, i32 0, i32 6
  %73 = load ptr, ptr %72, align 8, !tbaa !83
  %74 = getelementptr inbounds nuw %struct.Type, ptr %73, i32 0, i32 1
  %75 = load i32, ptr %74, align 4, !tbaa !41
  %76 = load i32, ptr %12, align 4, !tbaa !7
  %77 = mul nsw i32 %75, %76
  %78 = add nsw i32 %70, %77
  %79 = call zeroext i1 @has_flonum(ptr noundef %67, i32 noundef %68, i32 noundef %69, i32 noundef %78)
  br i1 %79, label %81, label %80

80:                                               ; preds = %64
  store i1 false, ptr %5, align 1
  store i32 1, ptr %11, align 4
  br label %85

81:                                               ; preds = %64
  br label %82

82:                                               ; preds = %81
  %83 = load i32, ptr %12, align 4, !tbaa !7
  %84 = add nsw i32 %83, 1
  store i32 %84, ptr %12, align 4, !tbaa !7
  br label %57, !llvm.loop !84

85:                                               ; preds = %80, %63
  call void @llvm.lifetime.end.p0(i64 4, ptr %12) #8
  %86 = load i32, ptr %11, align 4
  switch i32 %86, label %110 [
    i32 5, label %87
    i32 1, label %108
  ]

87:                                               ; preds = %85
  store i1 true, ptr %5, align 1
  br label %108

88:                                               ; preds = %51
  %89 = load i32, ptr %9, align 4, !tbaa !7
  %90 = load i32, ptr %7, align 4, !tbaa !7
  %91 = icmp slt i32 %89, %90
  br i1 %91, label %106, label %92

92:                                               ; preds = %88
  %93 = load i32, ptr %8, align 4, !tbaa !7
  %94 = load i32, ptr %9, align 4, !tbaa !7
  %95 = icmp sle i32 %93, %94
  br i1 %95, label %106, label %96

96:                                               ; preds = %92
  %97 = load ptr, ptr %6, align 8, !tbaa !37
  %98 = getelementptr inbounds nuw %struct.Type, ptr %97, i32 0, i32 0
  %99 = load i32, ptr %98, align 8, !tbaa !38
  %100 = icmp eq i32 %99, 6
  br i1 %100, label %106, label %101

101:                                              ; preds = %96
  %102 = load ptr, ptr %6, align 8, !tbaa !37
  %103 = getelementptr inbounds nuw %struct.Type, ptr %102, i32 0, i32 0
  %104 = load i32, ptr %103, align 8, !tbaa !38
  %105 = icmp eq i32 %104, 7
  br label %106

106:                                              ; preds = %101, %96, %92, %88
  %107 = phi i1 [ true, %96 ], [ true, %92 ], [ true, %88 ], [ %105, %101 ]
  store i1 %107, ptr %5, align 1
  br label %108

108:                                              ; preds = %106, %87, %85, %50, %48
  %109 = load i1, ptr %5, align 1
  ret i1 %109

110:                                              ; preds = %85, %48
  unreachable
}