; Function Attrs: nofree nosync nounwind memory(read, inaccessiblemem: none) uwtable
define internal fastcc noundef zeroext i1 @has_flonum(ptr noundef readonly captures(none) %0, i32 noundef range(i32 0, 9) %1, i32 noundef range(i32 8, 17) %2, i32 noundef %3) unnamed_addr #7 {
  %5 = load i32, ptr %0, align 8, !tbaa !29
  switch i32 %5, label %28 [
    i32 14, label %13
    i32 15, label %13
    i32 12, label %.preheader
  ]

.preheader:                                       ; preds = %4
  %6 = getelementptr inbounds nuw i8, ptr %0, i64 48
  %7 = load i32, ptr %6, align 8, !tbaa !71
  %8 = icmp slt i32 %7, 1
  br i1 %8, label %.loopexit, label %.lr.ph

.lr.ph:                                           ; preds = %.preheader
  %9 = getelementptr inbounds nuw i8, ptr %0, i64 24
  %10 = load ptr, ptr %9, align 8, !tbaa !72
  %11 = getelementptr inbounds nuw i8, ptr %10, i64 4
  %12 = load i32, ptr %11, align 4, !tbaa !32
  br label %23

13:                                               ; preds = %4, %4
  %14 = getelementptr inbounds nuw i8, ptr %0, i64 72
  br label %15

15:                                               ; preds = %16, %13
  %.029.in = phi ptr [ %14, %13 ], [ %.029, %16 ]
  %.029 = load ptr, ptr %.029.in, align 8, !tbaa !73
  %.not34 = icmp eq ptr %.029, null
  br i1 %.not34, label %.loopexit, label %16

16:                                               ; preds = %15
  %17 = getelementptr inbounds nuw i8, ptr %.029, i64 8
  %18 = load ptr, ptr %17, align 8, !tbaa !74
  %19 = getelementptr inbounds nuw i8, ptr %.029, i64 40
  %20 = load i32, ptr %19, align 8, !tbaa !76
  %21 = add nsw i32 %20, %3
  %22 = tail call fastcc zeroext i1 @has_flonum(ptr noundef %18, i32 noundef %1, i32 noundef %2, i32 noundef %21)
  br i1 %22, label %15, label %.loopexit, !llvm.loop !77

23:                                               ; preds = %23, %.lr.ph
  %.044 = phi i32 [ 0, %.lr.ph ], [ %27, %23 ]
  %24 = mul nsw i32 %12, %.044
  %25 = add nsw i32 %24, %3
  %26 = tail call fastcc zeroext i1 @has_flonum(ptr noundef %10, i32 noundef %1, i32 noundef %2, i32 noundef %25)
  %27 = add nuw nsw i32 %.044, 1
  %exitcond.not = icmp ne i32 %27, %7
  %or.cond.not = select i1 %26, i1 %exitcond.not, i1 false
  br i1 %or.cond.not, label %23, label %.loopexit, !llvm.loop !78

28:                                               ; preds = %4
  %29 = icmp slt i32 %3, %1
  %.not = icmp sle i32 %2, %3
  %or.cond.not41 = or i1 %29, %.not
  %30 = and i32 %5, -2
  %31 = icmp eq i32 %30, 6
  %spec.select39 = or i1 %or.cond.not41, %31
  br label %.loopexit

.loopexit:                                        ; preds = %23, %15, %16, %.preheader, %28
  %.131 = phi i1 [ %spec.select39, %28 ], [ true, %.preheader ], [ %.not34, %16 ], [ %.not34, %15 ], [ %26, %23 ]
  ret i1 %.131
}